target datalayout = "e-m:e-p270:32:32-p271:32:32-p272:64:64-i64:64-i128:128-f80:128-n8:16:32:64-S128"
target triple = "x86_64-pc-linux-gnu"

@.str.1 = private unnamed_addr constant [35 x i8] c"Potential overflow in png_zalloc()\00", align 1

; Function Attrs: nounwind uwtable
define noalias ptr @png_zalloc(ptr noundef %0, i32 noundef %1, i32 noundef %2) #0 {
  %4 = alloca ptr, align 8
  %5 = alloca ptr, align 8
  %6 = alloca i32, align 4
  %7 = alloca i32, align 4
  %8 = alloca i64, align 8
  store ptr %0, ptr %5, align 8
  store i32 %1, ptr %6, align 4
  store i32 %2, ptr %7, align 4
  %9 = load i32, ptr %7, align 4
  %10 = zext i32 %9 to i64
  store i64 %10, ptr %8, align 8
  %11 = load ptr, ptr %5, align 8
  %12 = icmp eq ptr %11, null
  br i1 %12, label %13, label %14

13:                                               ; preds = %3
  store ptr null, ptr %4, align 8
  br label %31

14:                                               ; preds = %3
  %15 = load i32, ptr %6, align 4
  %16 = zext i32 %15 to i64
  %17 = load i32, ptr %7, align 4
  %18 = zext i32 %17 to i64
  %19 = udiv i64 -1, %18
  %20 = icmp uge i64 %16, %19
  br i1 %20, label %21, label %23

21:                                               ; preds = %14
  %22 = load ptr, ptr %5, align 8
  call void @png_warning(ptr noundef %22, ptr noundef @.str.1)
  store ptr null, ptr %4, align 8
  br label %31

23:                                               ; preds = %14
  %24 = load i32, ptr %6, align 4
  %25 = zext i32 %24 to i64
  %26 = load i64, ptr %8, align 8
  %27 = mul i64 %26, %25
  store i64 %27, ptr %8, align 8
  %28 = load ptr, ptr %5, align 8
  %29 = load i64, ptr %8, align 8
  %30 = call noalias ptr @png_malloc_warn(ptr noundef %28, i64 noundef %29)
  store ptr %30, ptr %4, align 8
  br label %31

31:                                               ; preds = %23, %21, %13
  %32 = load ptr, ptr %4, align 8
  ret ptr %32
}