; Function Attrs: nounwind uwtable
define noalias ptr @png_zalloc(ptr noundef %0, i32 noundef %1, i32 noundef %2) #0 {
  %4 = icmp eq ptr %0, null
  br i1 %4, label %10, label %5

5:                                                ; preds = %3
  %6 = zext i32 %2 to i64
  %7 = zext i32 %1 to i64
  %8 = mul nuw i64 %6, %7
  %9 = tail call noalias ptr @png_malloc_warn(ptr noundef nonnull %0, i64 noundef %8) #29
  br label %10

10:                                               ; preds = %3, %5
  %.0 = phi ptr [ %9, %5 ], [ null, %3 ]
  ret ptr %.0
}